; Function Attrs: nounwind uwtable
define hidden noundef i32 @dom_node_text_content_read(ptr noundef %0, ptr noundef %1) local_unnamed_addr #0 {
  %3 = tail call ptr @dom_object_get_node(ptr noundef %0) #12
  %4 = icmp eq ptr %3, null
  br i1 %4, label %5, label %6

5:                                                ; preds = %2
  tail call void @php_dom_throw_error(i32 noundef 11, i32 noundef 1) #12
  br label %7

6:                                                ; preds = %2
  tail call void @php_dom_get_content_into_zval(ptr noundef nonnull %3, ptr noundef %1, i1 noundef zeroext false) #12
  br label %7

7:                                                ; preds = %6, %5
  %.0 = phi i32 [ -1, %5 ], [ 0, %6 ]
  ret i32 %.0
}